(lp1
(lp2
S'head_fk_anim'
p3
a(lp4
(lp5
Na(lp6
aaaa(lp7
S'neck_01_fk_anim'
p8
a(lp9
(lp10
Na(lp11
aaaa(lp12
S'neck_02_fk_anim'
p13
a(lp14
(lp15
Na(lp16
aaaa(lp17
g14
aa(lp18
S'spine_01_anim'
p19
a(lp20
(lp21
Na(lp22
aaaa(lp23
S'spine_02_anim'
p24
a(lp25
(lp26
Na(lp27
aaaa(lp28
S'spine_03_anim'
p29
a(lp30
(lp31
Na(lp32
aaaa(lp33
g30
aa(lp34
g30
aa(lp35
S'mid_ik_anim'
p36
a(lp37
(lp38
Na(lp39
aaaa(lp40
S'chest_ik_anim'
p41
a(lp42
(lp43
Na(lp44
aaaa(lp45
S'body_anim'
p46
a(lp47
(lp48
Na(lp49
aaaa(lp50
S'hip_anim'
p51
a(lp52
(lp53
Na(lp54
aaaa(lp55
S'clavicle_l_anim'
p56
a(lp57
(lp58
Na(lp59
aaaa(lp60
S'clavicle_r_anim'
p61
a(lp62
(lp63
Na(lp64
aaaa(lp65
S'fk_arm_l_anim'
p66
a(lp67
(lp68
Na(lp69
aaaa(lp70
S'fk_arm_r_anim'
p71
a(lp72
(lp73
Na(lp74
aaaa(lp75
S'fk_elbow_l_anim'
p76
a(lp77
(lp78
Na(lp79
aaaa(lp80
S'fk_elbow_r_anim'
p81
a(lp82
(lp83
Na(lp84
aaaa(lp85
S'fk_wrist_l_anim'
p86
a(lp87
(lp88
Na(lp89
aaaa(lp90
S'fk_wrist_r_anim'
p91
a(lp92
(lp93
Na(lp94
aaaa(lp95
S'ik_elbow_l_anim'
p96
a(lp97
(lp98
Na(lp99
aaaa(lp100
S'ik_elbow_r_anim'
p101
a(lp102
(lp103
Na(lp104
aaaa(lp105
S'ik_wrist_l_anim'
p106
a(lp107
(lp108
Na(lp109
aaaa(lp110
S'ik_wrist_r_anim'
p111
a(lp112
(lp113
Na(lp114
aaaa(lp115
S'fk_thigh_l_anim'
p116
a(lp117
(lp118
Na(lp119
aaaa(lp120
S'fk_thigh_r_anim'
p121
a(lp122
(lp123
Na(lp124
aaaa(lp125
S'fk_calf_l_anim'
p126
a(lp127
(lp128
Na(lp129
aaaa(lp130
S'fk_calf_r_anim'
p131
a(lp132
(lp133
Na(lp134
aaaa(lp135
S'fk_foot_l_anim'
p136
a(lp137
(lp138
Na(lp139
aaaa(lp140
S'fk_foot_r_anim'
p141
a(lp142
(lp143
Na(lp144
aaaa(lp145
g142
aa(lp146
g142
aa(lp147
S'ik_foot_anim_l'
p148
a(lp149
(lp150
Na(lp151
aaaa(lp152
S'ik_foot_anim_r'
p153
a(lp154
(lp155
Na(lp156
aaaa(lp157
S'heel_ctrl_l'
p158
a(lp159
(lp160
Na(lp161
aaaa(lp162
S'heel_ctrl_r'
p163
a(lp164
(lp165
Na(lp166
aaaa(lp167
S'toe_wiggle_ctrl_l'
p168
a(lp169
(lp170
Na(lp171
aaaa(lp172
S'toe_wiggle_ctrl_r'
p173
a(lp174
(lp175
Na(lp176
aaaa(lp177
S'toe_tip_ctrl_l'
p178
a(lp179
(lp180
Na(lp181
aaaa(lp182
S'toe_tip_ctrl_r'
p183
a(lp184
(lp185
Na(lp186
aaaa(lp187
S'master_anim'
p188
a(lp189
(lp190
Na(lp191
aaaa(lp192
S'offset_anim'
p193
a(lp194
(lp195
Na(lp196
aaaa(lp197
S'root_anim'
p198
a(lp199
(lp200
Na(lp201
aaaa(lp202
S'upperarm_l_twist_anim'
p203
a(lp204
(lp205
Na(lp206
aaaa(lp207
S'upperarm_r_twist_anim'
p208
a(lp209
(lp210
Na(lp211
aaaa(lp212
S'thigh_l_twist_anim'
p213
a(lp214
(lp215
Na(lp216
aaaa(lp217
S'thigh_r_twist_anim'
p218
a(lp219
(lp220
Na(lp221
aaaa(lp222
g219
aa(lp223
g219
aa(lp224
S'pinky_finger_fk_ctrl_1_l'
p225
a(lp226
(lp227
Na(lp228
aaaa(lp229
S'pinky_finger_fk_ctrl_1_r'
p230
a(lp231
(lp232
Na(lp233
aaaa(lp234
S'pinky_finger_fk_ctrl_2_l'
p235
a(lp236
(lp237
Na(lp238
aaaa(lp239
S'pinky_finger_fk_ctrl_2_r'
p240
a(lp241
(lp242
Na(lp243
aaaa(lp244
S'pinky_finger_fk_ctrl_3_l'
p245
a(lp246
(lp247
Na(lp248
aaaa(lp249
S'pinky_finger_fk_ctrl_3_r'
p250
a(lp251
(lp252
Na(lp253
aaaa(lp254
g251
aa(lp255
g251
aa(lp256
S'ring_finger_fk_ctrl_1_l'
p257
a(lp258
(lp259
Na(lp260
aaaa(lp261
S'ring_finger_fk_ctrl_1_r'
p262
a(lp263
(lp264
Na(lp265
aaaa(lp266
S'ring_finger_fk_ctrl_2_l'
p267
a(lp268
(lp269
Na(lp270
aaaa(lp271
S'ring_finger_fk_ctrl_2_r'
p272
a(lp273
(lp274
Na(lp275
aaaa(lp276
S'ring_finger_fk_ctrl_3_l'
p277
a(lp278
(lp279
Na(lp280
aaaa(lp281
S'ring_finger_fk_ctrl_3_r'
p282
a(lp283
(lp284
Na(lp285
aaaa(lp286
g283
aa(lp287
g283
aa(lp288
S'middle_finger_fk_ctrl_1_l'
p289
a(lp290
(lp291
Na(lp292
aaaa(lp293
S'middle_finger_fk_ctrl_1_r'
p294
a(lp295
(lp296
Na(lp297
aaaa(lp298
S'middle_finger_fk_ctrl_2_l'
p299
a(lp300
(lp301
Na(lp302
aaaa(lp303
S'middle_finger_fk_ctrl_2_r'
p304
a(lp305
(lp306
Na(lp307
aaaa(lp308
S'middle_finger_fk_ctrl_3_l'
p309
a(lp310
(lp311
Na(lp312
aaaa(lp313
S'middle_finger_fk_ctrl_3_r'
p314
a(lp315
(lp316
Na(lp317
aaaa(lp318
g315
aa(lp319
g315
aa(lp320
S'index_finger_fk_ctrl_1_l'
p321
a(lp322
(lp323
Na(lp324
aaaa(lp325
S'index_finger_fk_ctrl_1_r'
p326
a(lp327
(lp328
Na(lp329
aaaa(lp330
S'index_finger_fk_ctrl_2_l'
p331
a(lp332
(lp333
Na(lp334
aaaa(lp335
S'index_finger_fk_ctrl_2_r'
p336
a(lp337
(lp338
Na(lp339
aaaa(lp340
S'index_finger_fk_ctrl_3_l'
p341
a(lp342
(lp343
Na(lp344
aaaa(lp345
S'index_finger_fk_ctrl_3_r'
p346
a(lp347
(lp348
Na(lp349
aaaa(lp350
S'thumb_finger_fk_ctrl_1_l'
p351
a(lp352
(lp353
Na(lp354
aaaa(lp355
S'thumb_finger_fk_ctrl_1_r'
p356
a(lp357
(lp358
Na(lp359
aaaa(lp360
S'thumb_finger_fk_ctrl_2_l'
p361
a(lp362
(lp363
Na(lp364
aaaa(lp365
S'thumb_finger_fk_ctrl_2_r'
p366
a(lp367
(lp368
Na(lp369
aaaa(lp370
S'thumb_finger_fk_ctrl_3_l'
p371
a(lp372
(lp373
Na(lp374
aaaa(lp375
S'thumb_finger_fk_ctrl_3_r'
p376
a(lp377
(lp378
Na(lp379
aaaa(lp380
S'index_l_ik_anim'
p381
a(lp382
(lp383
Na(lp384
aaaa(lp385
S'index_r_ik_anim'
p386
a(lp387
(lp388
Na(lp389
aaaa(lp390
S'middle_l_ik_anim'
p391
a(lp392
(lp393
Na(lp394
aaaa(lp395
S'middle_r_ik_anim'
p396
a(lp397
(lp398
Na(lp399
aaaa(lp400
S'ring_l_ik_anim'
p401
a(lp402
(lp403
Na(lp404
aaaa(lp405
S'ring_r_ik_anim'
p406
a(lp407
(lp408
Na(lp409
aaaa(lp410
S'pinky_l_ik_anim'
p411
a(lp412
(lp413
Na(lp414
aaaa(lp415
S'pinky_r_ik_anim'
p416
a(lp417
(lp418
Na(lp419
aaaa(lp420
S'thumb_l_ik_anim'
p421
a(lp422
(lp423
Na(lp424
aaaa(lp425
S'thumb_r_ik_anim'
p426
a(lp427
(lp428
Na(lp429
aaaa(lp430
S'index_l_poleVector'
p431
a(lp432
(lp433
Na(lp434
aaaa(lp435
S'index_r_poleVector'
p436
a(lp437
(lp438
Na(lp439
aaaa(lp440
S'middle_l_poleVector'
p441
a(lp442
(lp443
Na(lp444
aaaa(lp445
S'middle_r_poleVector'
p446
a(lp447
(lp448
Na(lp449
aaaa(lp450
S'ring_l_poleVector'
p451
a(lp452
(lp453
Na(lp454
aaaa(lp455
S'ring_r_poleVector'
p456
a(lp457
(lp458
Na(lp459
aaaa(lp460
S'pinky_l_poleVector'
p461
a(lp462
(lp463
Na(lp464
aaaa(lp465
S'pinky_r_poleVector'
p466
a(lp467
(lp468
Na(lp469
aaaa(lp470
S'thumb_l_poleVector'
p471
a(lp472
(lp473
Na(lp474
aaaa(lp475
S'thumb_r_poleVector'
p476
a(lp477
(lp478
Na(lp479
aaaa(lp480
S'l_global_ik_anim'
p481
a(lp482
(lp483
Na(lp484
aaaa(lp485
S'r_global_ik_anim'
p486
a(lp487
(lp488
Na(lp489
aaaa(lp490
S'Rig_Settings'
p491
a(lp492
(lp493
Na(lp494
aaaa(lp495
Vbody_anim_space_switcher
p496
a(lp497
(lp498
Na(lp499
aaaa(lp500
Vchest_ik_anim_space_switcher
p501
a(lp502
(lp503
Na(lp504
aaaa(lp505
Vik_elbow_l_anim_space_switcher
p506
a(lp507
(lp508
Na(lp509
aaaa(lp510
Vik_elbow_r_anim_space_switcher
p511
a(lp512
(lp513
Na(lp514
aaaa(lp515
Vik_foot_anim_l_space_switcher
p516
a(lp517
(lp518
Na(lp519
aaaa(lp520
Vik_foot_anim_r_space_switcher
p521
a(lp522
(lp523
Na(lp524
aaaa(lp525
Vik_wrist_l_anim_space_switcher
p526
a(lp527
(lp528
Na(lp529
aaaa(lp530
Vik_wrist_r_anim_space_switcher
p531
a(lp532
(lp533
Na(lp534
aaaa(lp535
Vl_global_ik_anim_space_switcher
p536
a(lp537
(lp538
Na(lp539
aaaa(lp540
Vmaster_anim_space_switcher
p541
a(lp542
(lp543
Na(lp544
aaaa(lp545
Vr_global_ik_anim_space_switcher
p546
a(lp547
(lp548
Na(lp549
aaaa(lp550
Vspine_01_space_switcher
p551
a(lp552
(lp553
Na(lp554
aaaa(lp555
S'chest_ik_world_aligned'
p556
a(lp557
(lp558
Na(lp559
aaaa(lp560
S'fk_orient_world_loc_l'
p561
a(lp562
(lp563
Na(lp564
aaaa(lp565
S'fk_orient_world_loc_r'
p566
a(lp567
(lp568
Na(lp569
aaaa(lp570
S'fk_orient_body_loc_l'
p571
a(lp572
(lp573
Na(lp574
aaaa(lp575
S'fk_orient_body_loc_r'
p576
a(lp577
(lp578
Na(lp579
aaaa(lp580
S'head_fk_orient_neck'
p581
a(lp582
(lp583
Na(lp584
aaaa(lp585
S'head_fk_orient_shoulder'
p586
a(lp587
(lp588
Na(lp589
aaaa(lp590
S'head_fk_orient_body'
p591
a(lp592
(lp593
Na(lp594
aaaa(lp595
S'head_fk_orient_world'
p596
a(lp597
(lp598
Na(lp599
aaaa.